target datalayout = "e-m:e-p270:32:32-p271:32:32-p272:64:64-i64:64-i128:128-f80:128-n8:16:32:64-S128"
target triple = "x86_64-pc-linux-gnu"

%class.remote_bitbang_t = type { ptr, i32, i32, [65536 x i8], [65536 x i8], i64, i64 }
%class.jtag_dtm_t = type { ptr, i32, i8, i8, i8, i8, i32, i32, i64, i32, i32, i32, i64, i32, i32, i8, i32 }

@stderr = external global ptr, align 8
@.str.7 = private unnamed_addr constant [45 x i8] c"remote_bitbang got unsupported command '%c'\0A\00", align 1
@.str.8 = private unnamed_addr constant [36 x i8] c"failed to write to socket: %s (%d)\0A\00", align 1
@.str.9 = private unnamed_addr constant [50 x i8] c"remote_bitbang failed to read on socket: %s (%d)\0A\00", align 1
@.str.10 = private unnamed_addr constant [29 x i8] c"Remote Bitbang received 'Q'\0A\00", align 1
@.str.11 = private unnamed_addr constant [29 x i8] c"Received nothing. Quitting.\0A\00", align 1

; Function Attrs: mustprogress nounwind uwtable
define linkonce_odr noundef zeroext i1 @_ZNK10jtag_dtm_t3tdoEv(ptr noundef nonnull align 8 dereferenceable(72) %0) #10 comdat align 2 {
  %2 = alloca ptr, align 8
  store ptr %0, ptr %2, align 8, !tbaa !10
  %3 = load ptr, ptr %2, align 8
  %4 = getelementptr inbounds nuw %class.jtag_dtm_t, ptr %3, i32 0, i32 5
  %5 = load i8, ptr %4, align 1, !tbaa !42, !range !31, !noundef !32
  %6 = trunc i8 %5 to i1
  ret i1 %6
}

; Function Attrs: mustprogress nounwind uwtable
define linkonce_odr noundef i32 @_ZNK10jtag_dtm_t5stateEv(ptr noundef nonnull align 8 dereferenceable(72) %0) #10 comdat align 2 {
  %2 = alloca ptr, align 8
  store ptr %0, ptr %2, align 8, !tbaa !10
  %3 = load ptr, ptr %2, align 8
  %4 = getelementptr inbounds nuw %class.jtag_dtm_t, ptr %3, i32 0, i32 16
  %5 = load i32, ptr %4, align 4, !tbaa !38
  ret i32 %5
}

; Function Attrs: mustprogress uwtable
define void @_ZN16remote_bitbang_t16execute_commandsEv(ptr noundef nonnull align 8 dereferenceable(131104) %0) #4 align 2 {
  %2 = alloca ptr, align 8
  %3 = alloca i32, align 4
  %4 = alloca i8, align 1
  %5 = alloca i8, align 1
  %6 = alloca i8, align 1
  %7 = alloca i32, align 4
  %8 = alloca i8, align 1
  %9 = alloca i32, align 4
  %10 = alloca i32, align 4
  %11 = alloca i64, align 8
  store ptr %0, ptr %2, align 8, !tbaa !3
  %12 = load ptr, ptr %2, align 8
  call void @llvm.lifetime.start.p0(i64 4, ptr %3) #3
  store i32 0, ptr %3, align 4, !tbaa !22
  call void @llvm.lifetime.start.p0(i64 1, ptr %4) #3
  store i8 0, ptr %4, align 1, !tbaa !28
  call void @llvm.lifetime.start.p0(i64 1, ptr %5) #3
  %13 = getelementptr inbounds nuw %class.remote_bitbang_t, ptr %12, i32 0, i32 0
  %14 = load ptr, ptr %13, align 8, !tbaa !12
  %15 = call noundef i32 @_ZNK10jtag_dtm_t5stateEv(ptr noundef nonnull align 8 dereferenceable(72) %14)
  %16 = icmp eq i32 %15, 1
  %17 = zext i1 %16 to i8
  store i8 %17, ptr %5, align 1, !tbaa !28
  call void @llvm.lifetime.start.p0(i64 1, ptr %6) #3
  store i8 0, ptr %6, align 1, !tbaa !28
  br label %18

18:                                               ; preds = %189, %1
  br label %19

19:                                               ; preds = %18
  %20 = getelementptr inbounds nuw %class.remote_bitbang_t, ptr %12, i32 0, i32 5
  %21 = load i64, ptr %20, align 8, !tbaa !18
  %22 = getelementptr inbounds nuw %class.remote_bitbang_t, ptr %12, i32 0, i32 6
  %23 = load i64, ptr %22, align 8, !tbaa !19
  %24 = icmp slt i64 %21, %23
  br i1 %24, label %25, label %134

25:                                               ; preds = %19
  call void @llvm.lifetime.start.p0(i64 4, ptr %7) #3
  store i32 0, ptr %7, align 4, !tbaa !22
  br label %26

26:                                               ; preds = %100, %25
  %27 = getelementptr inbounds nuw %class.remote_bitbang_t, ptr %12, i32 0, i32 5
  %28 = load i64, ptr %27, align 8, !tbaa !18
  %29 = getelementptr inbounds nuw %class.remote_bitbang_t, ptr %12, i32 0, i32 6
  %30 = load i64, ptr %29, align 8, !tbaa !19
  %31 = icmp slt i64 %28, %30
  br i1 %31, label %32, label %101

32:                                               ; preds = %26
  call void @llvm.lifetime.start.p0(i64 1, ptr %8) #3
  %33 = getelementptr inbounds nuw %class.remote_bitbang_t, ptr %12, i32 0, i32 4
  %34 = getelementptr inbounds nuw %class.remote_bitbang_t, ptr %12, i32 0, i32 5
  %35 = load i64, ptr %34, align 8, !tbaa !18
  %36 = getelementptr inbounds [65536 x i8], ptr %33, i64 0, i64 %35
  %37 = load i8, ptr %36, align 1, !tbaa !30
  store i8 %37, ptr %8, align 1, !tbaa !30
  %38 = load i8, ptr %8, align 1, !tbaa !30
  %39 = zext i8 %38 to i32
  switch i32 %39, label %78 [
    i32 66, label %83
    i32 98, label %83
    i32 114, label %40
    i32 48, label %43
    i32 49, label %46
    i32 50, label %49
    i32 51, label %52
    i32 52, label %55
    i32 53, label %58
    i32 54, label %61
    i32 55, label %64
    i32 82, label %67
    i32 81, label %77
  ]

40:                                               ; preds = %32
  %41 = getelementptr inbounds nuw %class.remote_bitbang_t, ptr %12, i32 0, i32 0
  %42 = load ptr, ptr %41, align 8, !tbaa !12
  call void @_ZN10jtag_dtm_t5resetEv(ptr noundef nonnull align 8 dereferenceable(72) %42)
  br label %83

43:                                               ; preds = %32
  %44 = getelementptr inbounds nuw %class.remote_bitbang_t, ptr %12, i32 0, i32 0
  %45 = load ptr, ptr %44, align 8, !tbaa !12
  call void @_ZN10jtag_dtm_t8set_pinsEbbb(ptr noundef nonnull align 8 dereferenceable(72) %45, i1 noundef zeroext false, i1 noundef zeroext false, i1 noundef zeroext false)
  br label %83

46:                                               ; preds = %32
  %47 = getelementptr inbounds nuw %class.remote_bitbang_t, ptr %12, i32 0, i32 0
  %48 = load ptr, ptr %47, align 8, !tbaa !12
  call void @_ZN10jtag_dtm_t8set_pinsEbbb(ptr noundef nonnull align 8 dereferenceable(72) %48, i1 noundef zeroext false, i1 noundef zeroext false, i1 noundef zeroext true)
  br label %83

49:                                               ; preds = %32
  %50 = getelementptr inbounds nuw %class.remote_bitbang_t, ptr %12, i32 0, i32 0
  %51 = load ptr, ptr %50, align 8, !tbaa !12
  call void @_ZN10jtag_dtm_t8set_pinsEbbb(ptr noundef nonnull align 8 dereferenceable(72) %51, i1 noundef zeroext false, i1 noundef zeroext true, i1 noundef zeroext false)
  br label %83

52:                                               ; preds = %32
  %53 = getelementptr inbounds nuw %class.remote_bitbang_t, ptr %12, i32 0, i32 0
  %54 = load ptr, ptr %53, align 8, !tbaa !12
  call void @_ZN10jtag_dtm_t8set_pinsEbbb(ptr noundef nonnull align 8 dereferenceable(72) %54, i1 noundef zeroext false, i1 noundef zeroext true, i1 noundef zeroext true)
  br label %83

55:                                               ; preds = %32
  %56 = getelementptr inbounds nuw %class.remote_bitbang_t, ptr %12, i32 0, i32 0
  %57 = load ptr, ptr %56, align 8, !tbaa !12
  call void @_ZN10jtag_dtm_t8set_pinsEbbb(ptr noundef nonnull align 8 dereferenceable(72) %57, i1 noundef zeroext true, i1 noundef zeroext false, i1 noundef zeroext false)
  br label %83

58:                                               ; preds = %32
  %59 = getelementptr inbounds nuw %class.remote_bitbang_t, ptr %12, i32 0, i32 0
  %60 = load ptr, ptr %59, align 8, !tbaa !12
  call void @_ZN10jtag_dtm_t8set_pinsEbbb(ptr noundef nonnull align 8 dereferenceable(72) %60, i1 noundef zeroext true, i1 noundef zeroext false, i1 noundef zeroext true)
  br label %83

61:                                               ; preds = %32
  %62 = getelementptr inbounds nuw %class.remote_bitbang_t, ptr %12, i32 0, i32 0
  %63 = load ptr, ptr %62, align 8, !tbaa !12
  call void @_ZN10jtag_dtm_t8set_pinsEbbb(ptr noundef nonnull align 8 dereferenceable(72) %63, i1 noundef zeroext true, i1 noundef zeroext true, i1 noundef zeroext false)
  br label %83

64:                                               ; preds = %32
  %65 = getelementptr inbounds nuw %class.remote_bitbang_t, ptr %12, i32 0, i32 0
  %66 = load ptr, ptr %65, align 8, !tbaa !12
  call void @_ZN10jtag_dtm_t8set_pinsEbbb(ptr noundef nonnull align 8 dereferenceable(72) %66, i1 noundef zeroext true, i1 noundef zeroext true, i1 noundef zeroext true)
  br label %83

67:                                               ; preds = %32
  %68 = getelementptr inbounds nuw %class.remote_bitbang_t, ptr %12, i32 0, i32 0
  %69 = load ptr, ptr %68, align 8, !tbaa !12
  %70 = call noundef zeroext i1 @_ZNK10jtag_dtm_t3tdoEv(ptr noundef nonnull align 8 dereferenceable(72) %69)
  %71 = select i1 %70, i8 49, i8 48
  %72 = getelementptr inbounds nuw %class.remote_bitbang_t, ptr %12, i32 0, i32 3
  %73 = load i32, ptr %7, align 4, !tbaa !22
  %74 = add i32 %73, 1
  store i32 %74, ptr %7, align 4, !tbaa !22
  %75 = zext i32 %73 to i64
  %76 = getelementptr inbounds nuw [65536 x i8], ptr %72, i64 0, i64 %75
  store i8 %71, ptr %76, align 1, !tbaa !30
  br label %83

77:                                               ; preds = %32
  store i8 1, ptr %4, align 1, !tbaa !28
  br label %83

78:                                               ; preds = %32
  %79 = load ptr, ptr @stderr, align 8, !tbaa !20
  %80 = load i8, ptr %8, align 1, !tbaa !30
  %81 = zext i8 %80 to i32
  %82 = call i32 (ptr, ptr, ...) @fprintf(ptr noundef %79, ptr noundef @.str.7, i32 noundef %81) #3
  br label %83

83:                                               ; preds = %78, %77, %67, %64, %32, %32, %61, %58, %55, %52, %49, %46, %43, %40
  %84 = getelementptr inbounds nuw %class.remote_bitbang_t, ptr %12, i32 0, i32 5
  %85 = load i64, ptr %84, align 8, !tbaa !18
  %86 = add nsw i64 %85, 1
  store i64 %86, ptr %84, align 8, !tbaa !18
  %87 = load i32, ptr %3, align 4, !tbaa !22
  %88 = add i32 %87, 1
  store i32 %88, ptr %3, align 4, !tbaa !22
  %89 = load i8, ptr %5, align 1, !tbaa !28, !range !31, !noundef !32
  %90 = trunc i8 %89 to i1
  br i1 %90, label %97, label %91

91:                                               ; preds = %83
  %92 = getelementptr inbounds nuw %class.remote_bitbang_t, ptr %12, i32 0, i32 0
  %93 = load ptr, ptr %92, align 8, !tbaa !12
  %94 = call noundef i32 @_ZNK10jtag_dtm_t5stateEv(ptr noundef nonnull align 8 dereferenceable(72) %93)
  %95 = icmp eq i32 %94, 1
  br i1 %95, label %96, label %97

96:                                               ; preds = %91
  store i8 1, ptr %6, align 1, !tbaa !28
  store i32 5, ptr %9, align 4
  br label %98

97:                                               ; preds = %91, %83
  store i8 0, ptr %5, align 1, !tbaa !28
  store i32 0, ptr %9, align 4
  br label %98

98:                                               ; preds = %97, %96
  call void @llvm.lifetime.end.p0(i64 1, ptr %8) #3
  %99 = load i32, ptr %9, align 4
  switch i32 %99, label %191 [
    i32 0, label %100
    i32 5, label %101
  ]

100:                                              ; preds = %98
  br label %26, !llvm.loop !33

101:                                              ; preds = %98, %26
  call void @llvm.lifetime.start.p0(i64 4, ptr %10) #3
  store i32 0, ptr %10, align 4, !tbaa !22
  br label %102

102:                                              ; preds = %127, %101
  %103 = load i32, ptr %10, align 4, !tbaa !22
  %104 = load i32, ptr %7, align 4, !tbaa !22
  %105 = icmp ult i32 %103, %104
  br i1 %105, label %106, label %133

106:                                              ; preds = %102
  call void @llvm.lifetime.start.p0(i64 8, ptr %11) #3
  %107 = getelementptr inbounds nuw %class.remote_bitbang_t, ptr %12, i32 0, i32 2
  %108 = load i32, ptr %107, align 4, !tbaa !17
  %109 = getelementptr inbounds nuw %class.remote_bitbang_t, ptr %12, i32 0, i32 3
  %110 = getelementptr inbounds [65536 x i8], ptr %109, i64 0, i64 0
  %111 = load i32, ptr %10, align 4, !tbaa !22
  %112 = zext i32 %111 to i64
  %113 = getelementptr inbounds nuw i8, ptr %110, i64 %112
  %114 = load i32, ptr %7, align 4, !tbaa !22
  %115 = zext i32 %114 to i64
  %116 = call i64 @write(i32 noundef %108, ptr noundef %113, i64 noundef %115)
  store i64 %116, ptr %11, align 8, !tbaa !35
  %117 = load i64, ptr %11, align 8, !tbaa !35
  %118 = icmp eq i64 %117, -1
  br i1 %118, label %119, label %127

119:                                              ; preds = %106
  %120 = load ptr, ptr @stderr, align 8, !tbaa !20
  %121 = call ptr @__errno_location() #11
  %122 = load i32, ptr %121, align 4, !tbaa !22
  %123 = call ptr @strerror(i32 noundef %122) #3
  %124 = call ptr @__errno_location() #11
  %125 = load i32, ptr %124, align 4, !tbaa !22
  %126 = call i32 (ptr, ptr, ...) @fprintf(ptr noundef %120, ptr noundef @.str.8, ptr noundef %123, i32 noundef %125) #3
  call void @abort() #12
  unreachable

127:                                              ; preds = %106
  %128 = load i64, ptr %11, align 8, !tbaa !35
  %129 = load i32, ptr %10, align 4, !tbaa !22
  %130 = zext i32 %129 to i64
  %131 = add nsw i64 %130, %128
  %132 = trunc i64 %131 to i32
  store i32 %132, ptr %10, align 4, !tbaa !22
  call void @llvm.lifetime.end.p0(i64 8, ptr %11) #3
  br label %102, !llvm.loop !36

133:                                              ; preds = %102
  call void @llvm.lifetime.end.p0(i64 4, ptr %10) #3
  call void @llvm.lifetime.end.p0(i64 4, ptr %7) #3
  br label %134

134:                                              ; preds = %133, %19
  %135 = load i32, ptr %3, align 4, !tbaa !22
  %136 = zext i32 %135 to i64
  %137 = icmp sgt i64 %136, 65536
  br i1 %137, label %144, label %138

138:                                              ; preds = %134
  %139 = load i8, ptr %4, align 1, !tbaa !28, !range !31, !noundef !32
  %140 = trunc i8 %139 to i1
  br i1 %140, label %144, label %141

141:                                              ; preds = %138
  %142 = load i8, ptr %6, align 1, !tbaa !28, !range !31, !noundef !32
  %143 = trunc i8 %142 to i1
  br i1 %143, label %144, label %145

144:                                              ; preds = %141, %138, %134
  br label %190

145:                                              ; preds = %141
  %146 = getelementptr inbounds nuw %class.remote_bitbang_t, ptr %12, i32 0, i32 5
  store i64 0, ptr %146, align 8, !tbaa !18
  %147 = getelementptr inbounds nuw %class.remote_bitbang_t, ptr %12, i32 0, i32 2
  %148 = load i32, ptr %147, align 4, !tbaa !17
  %149 = getelementptr inbounds nuw %class.remote_bitbang_t, ptr %12, i32 0, i32 4
  %150 = getelementptr inbounds [65536 x i8], ptr %149, i64 0, i64 0
  %151 = call i64 @read(i32 noundef %148, ptr noundef %150, i64 noundef 65536)
  %152 = getelementptr inbounds nuw %class.remote_bitbang_t, ptr %12, i32 0, i32 6
  store i64 %151, ptr %152, align 8, !tbaa !19
  %153 = getelementptr inbounds nuw %class.remote_bitbang_t, ptr %12, i32 0, i32 6
  %154 = load i64, ptr %153, align 8, !tbaa !19
  %155 = icmp eq i64 %154, -1
  br i1 %155, label %156, label %169

156:                                              ; preds = %145
  %157 = call ptr @__errno_location() #11
  %158 = load i32, ptr %157, align 4, !tbaa !22
  %159 = icmp eq i32 %158, 11
  br i1 %159, label %160, label %161

160:                                              ; preds = %156
  br label %190

161:                                              ; preds = %156
  %162 = load ptr, ptr @stderr, align 8, !tbaa !20
  %163 = call ptr @__errno_location() #11
  %164 = load i32, ptr %163, align 4, !tbaa !22
  %165 = call ptr @strerror(i32 noundef %164) #3
  %166 = call ptr @__errno_location() #11
  %167 = load i32, ptr %166, align 4, !tbaa !22
  %168 = call i32 (ptr, ptr, ...) @fprintf(ptr noundef %162, ptr noundef @.str.9, ptr noundef %165, i32 noundef %167) #3
  call void @abort() #12
  unreachable

169:                                              ; preds = %145
  %170 = load i8, ptr %4, align 1, !tbaa !28, !range !31, !noundef !32
  %171 = trunc i8 %170 to i1
  br i1 %171, label %172, label %175

172:                                              ; preds = %169
  %173 = load ptr, ptr @stderr, align 8, !tbaa !20
  %174 = call i32 (ptr, ptr, ...) @fprintf(ptr noundef %173, ptr noundef @.str.10) #3
  br label %175

175:                                              ; preds = %172, %169
  %176 = getelementptr inbounds nuw %class.remote_bitbang_t, ptr %12, i32 0, i32 6
  %177 = load i64, ptr %176, align 8, !tbaa !19
  %178 = icmp eq i64 %177, 0
  br i1 %178, label %182, label %179

179:                                              ; preds = %175
  %180 = load i8, ptr %4, align 1, !tbaa !28, !range !31, !noundef !32
  %181 = trunc i8 %180 to i1
  br i1 %181, label %182, label %189

182:                                              ; preds = %179, %175
  %183 = load ptr, ptr @stderr, align 8, !tbaa !20
  %184 = call i32 (ptr, ptr, ...) @fprintf(ptr noundef %183, ptr noundef @.str.11) #3
  %185 = getelementptr inbounds nuw %class.remote_bitbang_t, ptr %12, i32 0, i32 2
  %186 = load i32, ptr %185, align 4, !tbaa !17
  %187 = call i32 @close(i32 noundef %186)
  %188 = getelementptr inbounds nuw %class.remote_bitbang_t, ptr %12, i32 0, i32 2
  store i32 0, ptr %188, align 4, !tbaa !17
  br label %190

189:                                              ; preds = %179
  br label %18, !llvm.loop !37

190:                                              ; preds = %182, %160, %144
  call void @llvm.lifetime.end.p0(i64 1, ptr %6) #3
  call void @llvm.lifetime.end.p0(i64 1, ptr %5) #3
  call void @llvm.lifetime.end.p0(i64 1, ptr %4) #3
  call void @llvm.lifetime.end.p0(i64 4, ptr %3) #3
  ret void

191:                                              ; preds = %98
  unreachable
}