; Function Attrs: mustprogress uwtable
define void @_ZN16remote_bitbang_t16execute_commandsEv(ptr noundef nonnull align 8 captures(none) dereferenceable(131104) %0) local_unnamed_addr #3 align 2 {
  %2 = load ptr, ptr %0, align 8, !tbaa !3
  %3 = getelementptr inbounds nuw i8, ptr %2, i64 68
  %4 = load i32, ptr %3, align 4, !tbaa !22
  %5 = icmp eq i32 %4, 1
  %6 = getelementptr inbounds nuw i8, ptr %0, i64 131088
  %7 = getelementptr inbounds nuw i8, ptr %0, i64 131096
  %8 = getelementptr inbounds nuw i8, ptr %0, i64 65552
  %9 = getelementptr inbounds nuw i8, ptr %0, i64 16
  %10 = getelementptr inbounds nuw i8, ptr %0, i64 12
  %.pre = load i64, ptr %7, align 8, !tbaa !27
  br label %11

11:                                               ; preds = %.thread62, %1
  %12 = phi i64 [ %.pre, %1 ], [ %82, %.thread62 ]
  %.032 = phi i1 [ %5, %1 ], [ %.133496167, %.thread62 ]
  %.0 = phi i32 [ 0, %1 ], [ %.1525870, %.thread62 ]
  %13 = load i64, ptr %6, align 8, !tbaa !28
  %14 = icmp slt i64 %13, %12
  br i1 %14, label %.lr.ph, label %.thread62

.lr.ph:                                           ; preds = %11, %59
  %15 = phi i64 [ %52, %59 ], [ %13, %11 ]
  %.277 = phi i32 [ %53, %59 ], [ %.0, %11 ]
  %.22276 = phi i1 [ %.4, %59 ], [ false, %11 ]
  %.02475 = phi i32 [ %.226, %59 ], [ 0, %11 ]
  %.23474 = phi i1 [ false, %59 ], [ %.032, %11 ]
  %16 = getelementptr inbounds [65536 x i8], ptr %8, i64 0, i64 %15
  %17 = load i8, ptr %16, align 1, !tbaa !29
  switch i8 %17, label %46 [
    i8 66, label %50
    i8 98, label %50
    i8 114, label %18
    i8 48, label %20
    i8 49, label %22
    i8 50, label %24
    i8 51, label %26
    i8 52, label %28
    i8 53, label %30
    i8 54, label %32
    i8 55, label %34
    i8 82, label %36
    i8 81, label %45
  ]

18:                                               ; preds = %.lr.ph
  %19 = load ptr, ptr %0, align 8, !tbaa !3
  tail call void @_ZN10jtag_dtm_t5resetEv(ptr noundef nonnull align 8 dereferenceable(72) %19)
  br label %50

20:                                               ; preds = %.lr.ph
  %21 = load ptr, ptr %0, align 8, !tbaa !3
  tail call void @_ZN10jtag_dtm_t8set_pinsEbbb(ptr noundef nonnull align 8 dereferenceable(72) %21, i1 noundef zeroext false, i1 noundef zeroext false, i1 noundef zeroext false)
  br label %50

22:                                               ; preds = %.lr.ph
  %23 = load ptr, ptr %0, align 8, !tbaa !3
  tail call void @_ZN10jtag_dtm_t8set_pinsEbbb(ptr noundef nonnull align 8 dereferenceable(72) %23, i1 noundef zeroext false, i1 noundef zeroext false, i1 noundef zeroext true)
  br label %50

24:                                               ; preds = %.lr.ph
  %25 = load ptr, ptr %0, align 8, !tbaa !3
  tail call void @_ZN10jtag_dtm_t8set_pinsEbbb(ptr noundef nonnull align 8 dereferenceable(72) %25, i1 noundef zeroext false, i1 noundef zeroext true, i1 noundef zeroext false)
  br label %50

26:                                               ; preds = %.lr.ph
  %27 = load ptr, ptr %0, align 8, !tbaa !3
  tail call void @_ZN10jtag_dtm_t8set_pinsEbbb(ptr noundef nonnull align 8 dereferenceable(72) %27, i1 noundef zeroext false, i1 noundef zeroext true, i1 noundef zeroext true)
  br label %50

28:                                               ; preds = %.lr.ph
  %29 = load ptr, ptr %0, align 8, !tbaa !3
  tail call void @_ZN10jtag_dtm_t8set_pinsEbbb(ptr noundef nonnull align 8 dereferenceable(72) %29, i1 noundef zeroext true, i1 noundef zeroext false, i1 noundef zeroext false)
  br label %50

30:                                               ; preds = %.lr.ph
  %31 = load ptr, ptr %0, align 8, !tbaa !3
  tail call void @_ZN10jtag_dtm_t8set_pinsEbbb(ptr noundef nonnull align 8 dereferenceable(72) %31, i1 noundef zeroext true, i1 noundef zeroext false, i1 noundef zeroext true)
  br label %50

32:                                               ; preds = %.lr.ph
  %33 = load ptr, ptr %0, align 8, !tbaa !3
  tail call void @_ZN10jtag_dtm_t8set_pinsEbbb(ptr noundef nonnull align 8 dereferenceable(72) %33, i1 noundef zeroext true, i1 noundef zeroext true, i1 noundef zeroext false)
  br label %50

34:                                               ; preds = %.lr.ph
  %35 = load ptr, ptr %0, align 8, !tbaa !3
  tail call void @_ZN10jtag_dtm_t8set_pinsEbbb(ptr noundef nonnull align 8 dereferenceable(72) %35, i1 noundef zeroext true, i1 noundef zeroext true, i1 noundef zeroext true)
  br label %50

36:                                               ; preds = %.lr.ph
  %37 = load ptr, ptr %0, align 8, !tbaa !3
  %38 = getelementptr inbounds nuw i8, ptr %37, i64 15
  %39 = load i8, ptr %38, align 1, !tbaa !30, !range !31, !noundef !32
  %40 = trunc nuw i8 %39 to i1
  %41 = select i1 %40, i8 49, i8 48
  %42 = add i32 %.02475, 1
  %43 = zext i32 %.02475 to i64
  %44 = getelementptr inbounds nuw [65536 x i8], ptr %9, i64 0, i64 %43
  store i8 %41, ptr %44, align 1, !tbaa !29
  br label %50

45:                                               ; preds = %.lr.ph
  br label %50

46:                                               ; preds = %.lr.ph
  %47 = zext i8 %17 to i32
  %48 = load ptr, ptr @stderr, align 8, !tbaa !13
  %49 = tail call i32 (ptr, ptr, ...) @fprintf(ptr noundef %48, ptr noundef nonnull @.str.7, i32 noundef %47) #14
  br label %50

50:                                               ; preds = %46, %45, %36, %34, %32, %30, %28, %26, %24, %22, %20, %18, %.lr.ph, %.lr.ph
  %.226 = phi i32 [ %.02475, %46 ], [ %.02475, %45 ], [ %42, %36 ], [ %.02475, %34 ], [ %.02475, %32 ], [ %.02475, %30 ], [ %.02475, %28 ], [ %.02475, %26 ], [ %.02475, %24 ], [ %.02475, %22 ], [ %.02475, %20 ], [ %.02475, %18 ], [ %.02475, %.lr.ph ], [ %.02475, %.lr.ph ]
  %.4 = phi i1 [ %.22276, %46 ], [ true, %45 ], [ %.22276, %36 ], [ %.22276, %34 ], [ %.22276, %32 ], [ %.22276, %30 ], [ %.22276, %28 ], [ %.22276, %26 ], [ %.22276, %24 ], [ %.22276, %22 ], [ %.22276, %20 ], [ %.22276, %18 ], [ %.22276, %.lr.ph ], [ %.22276, %.lr.ph ]
  %51 = load i64, ptr %6, align 8, !tbaa !28
  %52 = add nsw i64 %51, 1
  store i64 %52, ptr %6, align 8, !tbaa !28
  %53 = add i32 %.277, 1
  br i1 %.23474, label %59, label %54

54:                                               ; preds = %50
  %55 = load ptr, ptr %0, align 8, !tbaa !3
  %56 = getelementptr inbounds nuw i8, ptr %55, i64 68
  %57 = load i32, ptr %56, align 4, !tbaa !22
  %58 = icmp eq i32 %57, 1
  br i1 %58, label %.thread, label %59

59:                                               ; preds = %50, %54
  %60 = load i64, ptr %7, align 8, !tbaa !27
  %61 = icmp slt i64 %52, %60
  br i1 %61, label %.lr.ph, label %.thread

.thread:                                          ; preds = %59, %54
  %.lcssa.ph = phi i1 [ false, %59 ], [ true, %54 ]
  %.not = icmp eq i32 %.226, 0
  br i1 %.not, label %._crit_edge, label %.lr.ph89

.lr.ph89:                                         ; preds = %.thread
  %62 = zext i32 %.226 to i64
  br label %67

63:                                               ; preds = %67
  %64 = trunc i64 %71 to i32
  %65 = add i32 %.01888, %64
  %66 = icmp ult i32 %65, %.226
  br i1 %66, label %67, label %._crit_edge, !llvm.loop !33

67:                                               ; preds = %.lr.ph89, %63
  %.01888 = phi i32 [ 0, %.lr.ph89 ], [ %65, %63 ]
  %68 = load i32, ptr %10, align 4, !tbaa !12
  %69 = zext i32 %.01888 to i64
  %70 = getelementptr inbounds nuw i8, ptr %9, i64 %69
  %71 = tail call i64 @write(i32 noundef %68, ptr noundef nonnull %70, i64 noundef %62)
  %72 = icmp eq i64 %71, -1
  br i1 %72, label %73, label %63

73:                                               ; preds = %67
  %74 = load ptr, ptr @stderr, align 8, !tbaa !13
  %75 = tail call ptr @__errno_location() #13
  %76 = load i32, ptr %75, align 4, !tbaa !15
  %77 = tail call ptr @strerror(i32 noundef %76) #12
  %78 = load i32, ptr %75, align 4, !tbaa !15
  %79 = tail call i32 (ptr, ptr, ...) @fprintf(ptr noundef %74, ptr noundef nonnull @.str.8, ptr noundef %77, i32 noundef %78) #14
  tail call void @abort() #15
  unreachable

._crit_edge:                                      ; preds = %63, %.thread
  %80 = icmp ugt i32 %53, 65536
  %brmerge = select i1 %80, i1 true, i1 %.4
  %brmerge71 = or i1 %.lcssa.ph, %brmerge
  br i1 %brmerge71, label %.loopexit, label %.thread62

.thread62:                                        ; preds = %._crit_edge, %11
  %.1525870 = phi i32 [ %.0, %11 ], [ %53, %._crit_edge ]
  %.133496167 = phi i1 [ %.032, %11 ], [ false, %._crit_edge ]
  store i64 0, ptr %6, align 8, !tbaa !28
  %81 = load i32, ptr %10, align 4, !tbaa !12
  %82 = tail call i64 @read(i32 noundef %81, ptr noundef nonnull %8, i64 noundef 65536)
  store i64 %82, ptr %7, align 8, !tbaa !27
  switch i64 %82, label %11 [
    i64 -1, label %83
    i64 0, label %92
  ]

83:                                               ; preds = %.thread62
  %84 = tail call ptr @__errno_location() #13
  %85 = load i32, ptr %84, align 4, !tbaa !15
  %86 = icmp eq i32 %85, 11
  br i1 %86, label %.loopexit, label %87

87:                                               ; preds = %83
  %88 = load ptr, ptr @stderr, align 8, !tbaa !13
  %89 = tail call ptr @strerror(i32 noundef %85) #12
  %90 = load i32, ptr %84, align 4, !tbaa !15
  %91 = tail call i32 (ptr, ptr, ...) @fprintf(ptr noundef %88, ptr noundef nonnull @.str.9, ptr noundef %89, i32 noundef %90) #14
  tail call void @abort() #15
  unreachable

92:                                               ; preds = %.thread62
  %93 = load ptr, ptr @stderr, align 8, !tbaa !13
  %94 = tail call i64 @fwrite(ptr nonnull @.str.11, i64 28, i64 1, ptr %93) #16
  %95 = load i32, ptr %10, align 4, !tbaa !12
  %96 = tail call i32 @close(i32 noundef %95)
  store i32 0, ptr %10, align 4, !tbaa !12
  br label %.loopexit

.loopexit:                                        ; preds = %._crit_edge, %83, %92
  ret void
}